; Function Attrs: nounwind uwtable
define internal noundef i32 @dissect_diameter_3gpp_deferred_location_type(ptr noundef %0, ptr readnone captures(none) %1, ptr noundef %2, ptr noundef readonly captures(none) %3) #0 {
  %5 = getelementptr inbounds nuw i8, ptr %3, i64 32
  %6 = load ptr, ptr %5, align 8
  %.not.i = icmp eq ptr %6, null
  br i1 %.not.i, label %proto_item_set_hidden.exit, label %7

7:                                                ; preds = %4
  %8 = getelementptr inbounds nuw i8, ptr %6, i64 32
  %9 = load ptr, ptr %8, align 8
  %.not5.i = icmp eq ptr %9, null
  br i1 %.not5.i, label %proto_item_set_hidden.exit, label %10

10:                                               ; preds = %7
  %11 = getelementptr inbounds nuw i8, ptr %9, i64 28
  %12 = load i32, ptr %11, align 4
  %13 = or i32 %12, 1
  store i32 %13, ptr %11, align 4
  br label %proto_item_set_hidden.exit

proto_item_set_hidden.exit:                       ; preds = %4, %7, %10
  %14 = load i32, ptr @hf_diameter_3gpp_deferred_location_type, align 4
  %15 = load i32, ptr @ett_diameter_3gpp_deferred_location_type, align 4
  %16 = tail call ptr @proto_tree_add_bitmask_with_flags(ptr noundef %2, ptr noundef %0, i32 noundef 0, i32 noundef %14, i32 noundef %15, ptr noundef nonnull @dissect_diameter_3gpp_deferred_location_type.flags, i32 noundef 0, i32 noundef 1) #3
  ret i32 4
}